target datalayout = "e-m:e-p270:32:32-p271:32:32-p272:64:64-i64:64-i128:128-f80:128-n8:16:32:64-S128"
target triple = "x86_64-pc-linux-gnu"

@l_Std_Internal_Parsec_ByteArray_digit___closed__1 = internal global i8 0, align 1

; Function Attrs: inlinehint nounwind uwtable
define internal ptr @lean_box(i64 noundef %0) #0 {
  %2 = alloca i64, align 8
  store i64 %0, ptr %2, align 8, !tbaa !11
  %3 = load i64, ptr %2, align 8, !tbaa !11
  %4 = shl i64 %3, 1
  %5 = or i64 %4, 1
  %6 = inttoptr i64 %5 to ptr
  ret ptr %6
}

; Function Attrs: inlinehint nounwind uwtable
define internal ptr @lean_usize_to_nat(i64 noundef %0) #0 {
  %2 = alloca ptr, align 8
  %3 = alloca i64, align 8
  store i64 %0, ptr %3, align 8, !tbaa !11
  %4 = load i64, ptr %3, align 8, !tbaa !11
  %5 = icmp ule i64 %4, 9223372036854775807
  %6 = zext i1 %5 to i32
  %7 = sext i32 %6 to i64
  %8 = call i64 @llvm.expect.i64(i64 %7, i64 1)
  %9 = icmp ne i64 %8, 0
  br i1 %9, label %10, label %13

10:                                               ; preds = %1
  %11 = load i64, ptr %3, align 8, !tbaa !11
  %12 = call ptr @lean_box(i64 noundef %11)
  store ptr %12, ptr %2, align 8
  br label %16

13:                                               ; preds = %1
  %14 = load i64, ptr %3, align 8, !tbaa !11
  %15 = call ptr @lean_big_usize_to_nat(i64 noundef %14)
  store ptr %15, ptr %2, align 8
  br label %16

16:                                               ; preds = %13, %10
  %17 = load ptr, ptr %2, align 8
  ret ptr %17
}

; Function Attrs: inlinehint nounwind uwtable
define internal ptr @lean_uint8_to_nat(i8 noundef zeroext %0) #0 {
  %2 = alloca i8, align 1
  store i8 %0, ptr %2, align 1, !tbaa !4
  %3 = load i8, ptr %2, align 1, !tbaa !4
  %4 = zext i8 %3 to i64
  %5 = call ptr @lean_usize_to_nat(i64 noundef %4)
  ret ptr %5
}

; Function Attrs: inlinehint nounwind uwtable
define internal zeroext i8 @lean_uint8_sub(i8 noundef zeroext %0, i8 noundef zeroext %1) #0 {
  %3 = alloca i8, align 1
  %4 = alloca i8, align 1
  store i8 %0, ptr %3, align 1, !tbaa !4
  store i8 %1, ptr %4, align 1, !tbaa !4
  %5 = load i8, ptr %3, align 1, !tbaa !4
  %6 = zext i8 %5 to i32
  %7 = load i8, ptr %4, align 1, !tbaa !4
  %8 = zext i8 %7 to i32
  %9 = sub i32 %6, %8
  %10 = trunc i32 %9 to i8
  ret i8 %10
}

; Function Attrs: nounwind uwtable
define ptr @l___private_Std_Internal_Parsec_ByteArray_0__Std_Internal_Parsec_ByteArray_digitToNat(i8 noundef zeroext %0) #2 {
  %2 = alloca i8, align 1
  %3 = alloca i8, align 1
  %4 = alloca i8, align 1
  %5 = alloca ptr, align 8
  store i8 %0, ptr %2, align 1, !tbaa !4
  br label %6

6:                                                ; preds = %1
  call void @llvm.lifetime.start.p0(i64 1, ptr %3) #7
  call void @llvm.lifetime.start.p0(i64 1, ptr %4) #7
  call void @llvm.lifetime.start.p0(i64 8, ptr %5) #7
  %7 = load i8, ptr @l_Std_Internal_Parsec_ByteArray_digit___closed__1, align 1, !tbaa !4
  store i8 %7, ptr %3, align 1, !tbaa !4
  %8 = load i8, ptr %2, align 1, !tbaa !4
  %9 = load i8, ptr %3, align 1, !tbaa !4
  %10 = call zeroext i8 @lean_uint8_sub(i8 noundef zeroext %8, i8 noundef zeroext %9)
  store i8 %10, ptr %4, align 1, !tbaa !4
  %11 = load i8, ptr %4, align 1, !tbaa !4
  %12 = call ptr @lean_uint8_to_nat(i8 noundef zeroext %11)
  store ptr %12, ptr %5, align 8, !tbaa !9
  %13 = load ptr, ptr %5, align 8, !tbaa !9
  call void @llvm.lifetime.end.p0(i64 8, ptr %5) #7
  call void @llvm.lifetime.end.p0(i64 1, ptr %4) #7
  call void @llvm.lifetime.end.p0(i64 1, ptr %3) #7
  ret ptr %13
}