; Function Attrs: mustprogress nofree norecurse nosync nounwind willreturn memory(read, argmem: none, inaccessiblemem: none) uwtable
define nonnull ptr @l___private_Std_Internal_Parsec_ByteArray_0__Std_Internal_Parsec_ByteArray_digitToNat(i8 noundef zeroext %0) local_unnamed_addr #3 {
  %.b = load i1, ptr @l_Std_Internal_Parsec_ByteArray_digit___closed__1, align 1
  %.neg = select i1 %.b, i8 -48, i8 0
  %2 = add i8 %.neg, %0
  %3 = zext i8 %2 to i64
  %4 = shl nuw nsw i64 %3, 1
  %5 = or disjoint i64 %4, 1
  %6 = inttoptr i64 %5 to ptr
  ret ptr %6
}